target datalayout = "e-m:e-p270:32:32-p271:32:32-p272:64:64-i64:64-i128:128-f80:128-n8:16:32:64-S128"
target triple = "x86_64-pc-linux-gnu"

%struct._ir_insn = type { %struct.anon, %union.anon.6 }
%struct.anon = type { %union.anon.0, %union.anon.5 }
%union.anon.0 = type { i32 }
%union.anon.5 = type { i32 }
%union.anon.6 = type { %union._ir_val }
%union._ir_val = type { double }
%struct._ir_ctx = type { ptr, i32, i32, i32, i32, i32, i32, i32, i32, i32, i32, %struct._ir_insn, ptr, ptr, ptr, i32, i32, i32, ptr, ptr, ptr, ptr, ptr, i32, i32, i64, i32, i32, i32, i64, i32, i32, i32, i32, ptr, ptr, ptr, ptr, ptr, ptr, %union.anon.14, ptr, i32, i32, i32, i64, i32, i32, i32, ptr, ptr, ptr, ptr, %struct._ir_strtab, [61 x i32], [14 x i32] }
%union.anon.14 = type { ptr }
%struct._ir_strtab = type { ptr, i32, i32, i32, i32, ptr, i32, i32 }
%struct._ir_live_interval = type { i8, i8, i16, %union.anon.17, %union.anon.18, i32, %struct._ir_live_range, ptr, ptr, ptr, ptr }
%union.anon.17 = type { i32 }
%union.anon.18 = type { i32 }
%struct._ir_live_range = type { i32, i32, ptr }

; Function Attrs: nounwind uwtable
define hidden i32 @ir_get_spill_slot_offset(ptr noundef %0, i32 noundef %1) #0 {
  %3 = alloca ptr, align 8
  %4 = alloca i32, align 4
  %5 = alloca i32, align 4
  store ptr %0, ptr %3, align 8
  store i32 %1, ptr %4, align 4
  %6 = load ptr, ptr %3, align 8
  %7 = getelementptr inbounds %struct._ir_ctx, ptr %6, i32 0, i32 34
  %8 = load ptr, ptr %7, align 8
  %9 = load ptr, ptr %3, align 8
  %10 = getelementptr inbounds %struct._ir_ctx, ptr %9, i32 0, i32 22
  %11 = load ptr, ptr %10, align 8
  %12 = load i32, ptr %4, align 4
  %13 = sext i32 %12 to i64
  %14 = getelementptr inbounds i32, ptr %11, i64 %13
  %15 = load i32, ptr %14, align 4
  %16 = zext i32 %15 to i64
  %17 = getelementptr inbounds ptr, ptr %8, i64 %16
  %18 = load ptr, ptr %17, align 8
  %19 = getelementptr inbounds %struct._ir_live_interval, ptr %18, i32 0, i32 4
  %20 = load i32, ptr %19, align 8
  store i32 %20, ptr %5, align 4
  %21 = load ptr, ptr %3, align 8
  %22 = getelementptr inbounds %struct._ir_ctx, ptr %21, i32 0, i32 5
  %23 = load i32, ptr %22, align 8
  %24 = and i32 %23, 512
  %25 = icmp ne i32 %24, 0
  br i1 %25, label %26, label %36

26:                                               ; preds = %2
  %27 = load i32, ptr %5, align 4
  %28 = load ptr, ptr %3, align 8
  %29 = getelementptr inbounds %struct._ir_ctx, ptr %28, i32 0, i32 43
  %30 = load i32, ptr %29, align 4
  %31 = load ptr, ptr %3, align 8
  %32 = getelementptr inbounds %struct._ir_ctx, ptr %31, i32 0, i32 42
  %33 = load i32, ptr %32, align 8
  %34 = sub nsw i32 %30, %33
  %35 = sub nsw i32 %27, %34
  br label %42

36:                                               ; preds = %2
  %37 = load i32, ptr %5, align 4
  %38 = load ptr, ptr %3, align 8
  %39 = getelementptr inbounds %struct._ir_ctx, ptr %38, i32 0, i32 44
  %40 = load i32, ptr %39, align 8
  %41 = add nsw i32 %37, %40
  br label %42

42:                                               ; preds = %36, %26
  %43 = phi i32 [ %35, %26 ], [ %41, %36 ]
  ret i32 %43
}