; Function Attrs: mustprogress nofree norecurse nosync nounwind willreturn memory(read, inaccessiblemem: none) uwtable
define hidden i32 @ir_get_spill_slot_offset(ptr nocapture noundef readonly %0, i32 noundef %1) local_unnamed_addr #8 {
  %3 = getelementptr inbounds i8, ptr %0, i64 200
  %4 = load ptr, ptr %3, align 8
  %5 = getelementptr inbounds i8, ptr %0, i64 136
  %6 = load ptr, ptr %5, align 8
  %7 = sext i32 %1 to i64
  %8 = getelementptr inbounds i32, ptr %6, i64 %7
  %9 = load i32, ptr %8, align 4
  %10 = zext i32 %9 to i64
  %11 = getelementptr inbounds ptr, ptr %4, i64 %10
  %12 = load ptr, ptr %11, align 8
  %13 = getelementptr inbounds i8, ptr %12, i64 8
  %14 = load i32, ptr %13, align 8
  %15 = getelementptr inbounds i8, ptr %0, i64 24
  %16 = load i32, ptr %15, align 8
  %17 = and i32 %16, 512
  %.not = icmp eq i32 %17, 0
  br i1 %.not, label %24, label %18

18:                                               ; preds = %2
  %19 = getelementptr inbounds i8, ptr %0, i64 268
  %20 = load i32, ptr %19, align 4
  %21 = getelementptr inbounds i8, ptr %0, i64 264
  %22 = load i32, ptr %21, align 8
  %.neg = sub i32 %14, %20
  %23 = add i32 %.neg, %22
  br label %28

24:                                               ; preds = %2
  %25 = getelementptr inbounds i8, ptr %0, i64 272
  %26 = load i32, ptr %25, align 8
  %27 = add nsw i32 %26, %14
  br label %28

28:                                               ; preds = %24, %18
  %29 = phi i32 [ %23, %18 ], [ %27, %24 ]
  ret i32 %29
}